Certificate:
    Data:
        Version: 3 (0x2)
        Serial Number: 1 (0x1)
        Signature Algorithm: md5WithRSAEncryption
        Issuer: C=FR, ST=Radius, L=Somewhere, O=Example Inc./emailAddress=admin@example.com, CN=Example Certificate Authority
        Validity
            Not Before: Feb 24 03:31:27 2009 GMT
            Not After : Feb 24 03:31:27 2010 GMT
        Subject: C=FR, ST=Radius, O=Example Inc., CN=Example Server Certificate/emailAddress=admin@example.com
        Subject Public Key Info:
            Public Key Algorithm: rsaEncryption
            RSA Public Key: (2048 bit)
                Modulus (2048 bit):
                    00:ad:3e:ad:e7:f6:1a:b9:72:59:31:ad:8a:46:d8:
                    39:54:fa:f8:32:1b:86:c7:fc:aa:36:09:70:54:7b:
                    15:15:11:88:87:3d:c2:c5:91:5d:05:3f:bb:c0:cd:
                    da:19:e7:e6:af:fa:b1:8a:72:c1:72:e3:88:e0:39:
                    79:38:8e:20:2e:bc:25:58:8f:8e:cd:7f:55:81:2e:
                    0d:df:72:e3:c2:7e:54:e2:01:a6:24:89:7b:76:ef:
                    4c:23:2a:b0:b0:6d:70:00:a3:c4:82:1c:b9:d6:70:
                    02:23:c4:8f:f4:af:4a:a0:13:e2:51:39:21:7f:f4:
                    e5:fa:f2:fc:52:4d:fb:43:11:31:af:f4:71:e7:3c:
                    a2:d5:49:2f:b6:7e:49:49:58:e6:66:df:ba:5e:aa:
                    d0:14:be:3a:17:df:97:3e:8f:8d:b0:5a:b9:e2:85:
                    51:df:1f:d8:b8:e0:64:73:4a:26:1a:24:c1:fb:8e:
                    01:f9:a6:cb:0b:72:69:8d:bf:76:3b:b5:f6:2a:6a:
                    01:61:de:71:77:3a:53:f8:f4:a9:42:38:8a:3e:f5:
                    cd:c7:96:52:58:51:f1:e2:f9:c6:d7:13:7b:d4:21:
                    55:fd:16:ee:4f:5f:5b:25:fb:7a:ae:79:8b:47:cc:
                    2c:b9:c8:d9:9c:b2:99:84:b4:dd:ef:a9:21:a8:2a:
                    c1:db
                Exponent: 65537 (0x10001)
        X509v3 extensions:
            X509v3 Extended Key Usage: 
                TLS Web Server Authentication
    Signature Algorithm: md5WithRSAEncryption
        04:5f:87:5d:84:95:a0:0b:fa:90:9b:82:39:c8:39:4b:77:ae:
        ac:fc:fc:c0:50:a5:3f:53:70:83:74:4c:81:a8:9e:62:cb:a8:
        12:7f:6d:56:e6:db:fe:f5:ea:08:fd:59:83:50:f0:b2:35:16:
        42:25:57:e1:1a:35:f9:82:57:c0:ce:8e:5d:bb:6c:42:4f:b1:
        ed:62:27:d4:72:28:6b:b6:30:d1:b5:2c:c2:c8:89:4c:27:ad:
        fb:69:07:6d:2a:fa:d0:4e:1d:f4:46:52:fa:7c:2d:57:cb:3c:
        91:6b:01:3e:67:e0:b3:2b:9d:a2:c6:28:43:06:6b:c3:4c:7a:
        e0:b4:da:2b:89:89:04:e5:e7:14:60:aa:87:67:a3:03:5b:3b:
        3c:92:06:4c:bc:aa:a4:57:28:04:88:34:e3:bf:93:6e:6a:47:
        a2:a8:56:38:ce:ce:fa:e3:6a:79:7f:d3:fe:05:cc:70:89:9e:
        42:41:54:a8:7c:23:31:59:6c:9d:36:ac:50:af:fc:cb:1e:df:
        aa:b3:72:5b:8f:20:c0:38:8d:43:32:01:18:fc:a3:c1:02:4d:
        73:b6:50:b5:2c:17:de:c1:3a:ca:9c:1c:77:89:e1:f6:66:46:
        8a:91:1f:a5:d1:f1:90:d0:40:31:b1:09:54:9f:66:de:0d:10:
        3d:ba:66:50
-----BEGIN CERTIFICATE-----
MIIDojCCAoqgAwIBAgIBATANBgkqhkiG9w0BAQQFADCBkzELMAkGA1UEBhMCRlIx
DzANBgNVBAgTBlJhZGl1czESMBAGA1UEBxMJU29tZXdoZXJlMRUwEwYDVQQKEwxF
eGFtcGxlIEluYy4xIDAeBgkqhkiG9w0BCQEWEWFkbWluQGV4YW1wbGUuY29tMSYw
JAYDVQQDEx1FeGFtcGxlIENlcnRpZmljYXRlIEF1dGhvcml0eTAeFw0wOTAyMjQw
MzMxMjdaFw0xMDAyMjQwMzMxMjdaMHwxCzAJBgNVBAYTAkZSMQ8wDQYDVQQIEwZS
YWRpdXMxFTATBgNVBAoTDEV4YW1wbGUgSW5jLjEjMCEGA1UEAxMaRXhhbXBsZSBT
ZXJ2ZXIgQ2VydGlmaWNhdGUxIDAeBgkqhkiG9w0BCQEWEWFkbWluQGV4YW1wbGUu
Y29tMIIBIjANBgkqhkiG9w0BAQEFAAOCAQ8AMIIBCgKCAQEArT6t5/YauXJZMa2K
Rtg5VPr4MhuGx/yqNglwVHsVFRGIhz3CxZFdBT+7wM3aGefmr/qxinLBcuOI4Dl5
OI4gLrwlWI+OzX9VgS4N33Ljwn5U4gGmJIl7du9MIyqwsG1wAKPEghy51nACI8SP
9K9KoBPiUTkhf/Tl+vL8Uk37QxExr/Rx5zyi1Ukvtn5JSVjmZt+6XqrQFL46F9+X
Po+NsFq54oVR3x/YuOBkc0omGiTB+44B+abLC3Jpjb92O7X2KmoBYd5xdzpT+PSp
QjiKPvXNx5ZSWFHx4vnG1xN71CFV/RbuT19bJft6rnmLR8wsucjZnLKZhLTd76kh
qCrB2wIDAQABoxcwFTATBgNVHSUEDDAKBggrBgEFBQcDATANBgkqhkiG9w0BAQQF
AAOCAQEABF+HXYSVoAv6kJuCOcg5S3eurPz8wFClP1Nwg3RMgaieYsuoEn9tVubb
/vXqCP1Zg1DwsjUWQiVX4Ro1+YJXwM6OXbtsQk+x7WIn1HIoa7Yw0bUswsiJTCet
+2kHbSr60E4d9EZS+nwtV8s8kWsBPmfgsyudosYoQwZrw0x64LTaK4mJBOXnFGCq
h2ejA1s7PJIGTLyqpFcoBIg047+TbmpHoqhWOM7O+uNqeX/T/gXMcImeQkFUqHwj
MVlsnTasUK/8yx7fqrNyW48gwDiNQzIBGPyjwQJNc7ZQtSwX3sE6ypwcd4nh9mZG
ipEfpdHxkNBAMbEJVJ9m3g0QPbpmUA==
-----END CERTIFICATE-----
